; Function Attrs: mustprogress nofree norecurse nosync nounwind willreturn memory(argmem: write) uwtable
define internal void @dc_128_4x4_c(ptr noundef writeonly captures(none) initializes((0, 4)) %0, i64 noundef %1, ptr readnone captures(none) %2, ptr readnone captures(none) %3) #3 {
  store i32 -2139062144, ptr %0, align 4, !tbaa !8
  %5 = getelementptr inbounds i8, ptr %0, i64 %1
  store i32 -2139062144, ptr %5, align 4, !tbaa !8
  %6 = shl nsw i64 %1, 1
  %7 = getelementptr inbounds i8, ptr %0, i64 %6
  store i32 -2139062144, ptr %7, align 4, !tbaa !8
  %8 = mul nsw i64 %1, 3
  %9 = getelementptr inbounds i8, ptr %0, i64 %8
  store i32 -2139062144, ptr %9, align 4, !tbaa !8
  ret void
}